; Function Attrs: mustprogress uwtable
define internal void @"_ZNSt17_Function_handlerIF11cmCMakePathRKS0_RKNSt7__cxx1112basic_stringIcSt11char_traitsIcESaIcEEEEZN12_GLOBAL__N_125HandleAbsolutePathCommandERKSt6vectorIS8_SaIS8_EER17cmExecutionStatusE3$_0E9_M_invokeERKSt9_Any_dataS2_SA_"(ptr dead_on_unwind noalias writable sret(%class.cmCMakePath) align 8 %0, ptr nonnull readnone align 8 captures(none) %1, ptr noundef nonnull align 8 dereferenceable(40) %2, ptr noundef nonnull align 8 dereferenceable(32) %3) #3 align 2 personality ptr @__gxx_personality_v0 {
  %5 = alloca %"class.std::filesystem::__cxx11::path", align 8
  call void @llvm.lifetime.start.p0(i64 40, ptr nonnull %5), !noalias !251
  call void @_ZNSt10filesystem7__cxx114pathC2INSt7__cxx1112basic_stringIcSt11char_traitsIcESaIcEEES1_EERKT_NS1_6formatE(ptr noundef nonnull align 8 dereferenceable(40) %5, ptr noundef nonnull align 8 dereferenceable(32) %3, i8 noundef zeroext 2), !noalias !258
  invoke void @_ZNK11cmCMakePath8AbsoluteERKNSt10filesystem7__cxx114pathE(ptr dead_on_unwind writable sret(%class.cmCMakePath) align 8 %0, ptr noundef nonnull align 8 dereferenceable(40) %2, ptr noundef nonnull align 8 dereferenceable(40) %5)
          to label %6 unwind label %10

6:                                                ; preds = %4
  %7 = getelementptr inbounds nuw i8, ptr %5, i64 32
  %8 = load ptr, ptr %7, align 8, !noalias !258
  %.not.i.i.i.i.i.i.i = icmp eq ptr %8, null
  br i1 %.not.i.i.i.i.i.i.i, label %"_ZSt10__invoke_rI11cmCMakePathRZN12_GLOBAL__N_125HandleAbsolutePathCommandERKSt6vectorINSt7__cxx1112basic_stringIcSt11char_traitsIcESaIcEEESaIS8_EER17cmExecutionStatusE3$_0JRKS0_RKS8_EENSt9enable_ifIX16is_invocable_r_vIT_T0_DpT1_EESM_E4typeEOSN_DpOSO_.exit", label %9

9:                                                ; preds = %6
  call void @_ZNKSt10filesystem7__cxx114path5_List13_Impl_deleterclEPNS2_5_ImplE(ptr noundef nonnull align 8 dereferenceable(8) %7, ptr noundef nonnull %8) #21
  br label %"_ZSt10__invoke_rI11cmCMakePathRZN12_GLOBAL__N_125HandleAbsolutePathCommandERKSt6vectorINSt7__cxx1112basic_stringIcSt11char_traitsIcESaIcEEESaIS8_EER17cmExecutionStatusE3$_0JRKS0_RKS8_EENSt9enable_ifIX16is_invocable_r_vIT_T0_DpT1_EESM_E4typeEOSN_DpOSO_.exit"

10:                                               ; preds = %4
  %11 = landingpad { ptr, i32 }
          cleanup
  call void @_ZNSt10filesystem7__cxx114pathD2Ev(ptr noundef nonnull align 8 dereferenceable(40) %5) #21
  resume { ptr, i32 } %11

"_ZSt10__invoke_rI11cmCMakePathRZN12_GLOBAL__N_125HandleAbsolutePathCommandERKSt6vectorINSt7__cxx1112basic_stringIcSt11char_traitsIcESaIcEEESaIS8_EER17cmExecutionStatusE3$_0JRKS0_RKS8_EENSt9enable_ifIX16is_invocable_r_vIT_T0_DpT1_EESM_E4typeEOSN_DpOSO_.exit": ; preds = %6, %9
  store ptr null, ptr %7, align 8, !noalias !258
  call void @_ZNSt7__cxx1112basic_stringIcSt11char_traitsIcESaIcEED1Ev(ptr noundef nonnull align 8 dereferenceable(40) %5) #21
  call void @llvm.lifetime.end.p0(i64 40, ptr nonnull %5), !noalias !251
  ret void
}